; Function Attrs: mustprogress nofree nounwind willreturn memory(read) uwtable
define dso_local noundef ptr @_ZNK4llvm10BasicBlock18getSingleSuccessorEv(ptr noundef nonnull readonly align 8 dereferenceable(80) %0) local_unnamed_addr #10 align 2 {
  %2 = getelementptr inbounds nuw i8, ptr %0, i64 48
  %3 = load ptr, ptr %2, align 8
  %4 = icmp eq ptr %2, %3
  br i1 %4, label %_ZN4llvm8succ_endEPKNS_10BasicBlockE.exit.thread, label %5

5:                                                ; preds = %1
  %6 = getelementptr inbounds i8, ptr %3, i64 -24
  %7 = load i8, ptr %6, align 8
  %8 = add i8 %7, -30
  %9 = icmp ult i8 %8, 11
  br i1 %9, label %_ZN4llvm8succ_endEPKNS_10BasicBlockE.exit, label %_ZN4llvm8succ_endEPKNS_10BasicBlockE.exit.thread

_ZN4llvm8succ_endEPKNS_10BasicBlockE.exit:        ; preds = %5
  %10 = tail call noundef i32 @_ZNK4llvm11Instruction16getNumSuccessorsEv(ptr noundef nonnull align 8 dereferenceable(72) %6) #28
  %11 = icmp eq i32 %10, 0
  br i1 %11, label %_ZN4llvm8succ_endEPKNS_10BasicBlockE.exit.thread, label %12

12:                                               ; preds = %_ZN4llvm8succ_endEPKNS_10BasicBlockE.exit
  %13 = tail call noundef ptr @_ZNK4llvm11Instruction12getSuccessorEj(ptr noundef nonnull align 8 dereferenceable(72) %6, i32 noundef 0) #28
  %14 = icmp eq i32 %10, 1
  %15 = select i1 %14, ptr %13, ptr null
  br label %_ZN4llvm8succ_endEPKNS_10BasicBlockE.exit.thread

_ZN4llvm8succ_endEPKNS_10BasicBlockE.exit.thread: ; preds = %1, %5, %_ZN4llvm8succ_endEPKNS_10BasicBlockE.exit, %12
  %.0 = phi ptr [ %15, %12 ], [ null, %_ZN4llvm8succ_endEPKNS_10BasicBlockE.exit ], [ null, %5 ], [ null, %1 ]
  ret ptr %.0
}